target datalayout = "e-m:e-p270:32:32-p271:32:32-p272:64:64-i64:64-i128:128-f80:128-n8:16:32:64-S128"
target triple = "x86_64-pc-linux-gnu"

%class.arith_factory = type { %class.numeral_factory, %class.arith_util }
%class.numeral_factory = type { %class.simple_factory }
%class.simple_factory = type { %class.value_factory.base, [4 x i8], %class.obj_map, %class.ref_vector, %class.ref_vector.0, %class.ptr_vector.5 }
%class.value_factory.base = type <{ ptr, ptr, i32 }>
%class.obj_map = type { %class.core_hashtable }
%class.core_hashtable = type <{ ptr, i32, i32, i32, [4 x i8] }>
%class.ref_vector = type { %class.ref_vector_core }
%class.ref_vector_core = type { %class.ref_manager_wrapper, %class.ptr_vector }
%class.ref_manager_wrapper = type { ptr }
%class.ptr_vector = type { %class.vector }
%class.vector = type { ptr }
%class.ref_vector.0 = type { %class.ref_vector_core.1 }
%class.ref_vector_core.1 = type { %class.ref_manager_wrapper.2, %class.ptr_vector.3 }
%class.ref_manager_wrapper.2 = type { ptr }
%class.ptr_vector.3 = type { %class.vector.4 }
%class.vector.4 = type { ptr }
%class.ptr_vector.5 = type { %class.vector.6 }
%class.vector.6 = type { ptr }
%class.arith_util = type { ptr, ptr }
%class.symbol = type { ptr }
%class.decl = type { %class.ast, %class.symbol, ptr }
%class.ast = type { i32, i32, i32, i32 }
%class.decl_info = type <{ i32, i32, %class.vector.42, i8, [7 x i8] }>
%class.vector.42 = type { ptr }

; Function Attrs: mustprogress nounwind uwtable
define linkonce_odr hidden noundef i32 @_ZNK9decl_info13get_decl_kindEv(ptr noundef nonnull align 8 dereferenceable(17) %0) #6 comdat align 2 {
  %2 = alloca ptr, align 8
  store ptr %0, ptr %2, align 8, !tbaa !57
  %3 = load ptr, ptr %2, align 8
  %4 = getelementptr inbounds nuw %class.decl_info, ptr %3, i32 0, i32 1
  %5 = load i32, ptr %4, align 4, !tbaa !62
  ret i32 %5
}

; Function Attrs: mustprogress nounwind uwtable
define linkonce_odr hidden noundef i32 @_ZNK9decl_info13get_family_idEv(ptr noundef nonnull align 8 dereferenceable(17) %0) #6 comdat align 2 {
  %2 = alloca ptr, align 8
  store ptr %0, ptr %2, align 8, !tbaa !57
  %3 = load ptr, ptr %2, align 8
  %4 = getelementptr inbounds nuw %class.decl_info, ptr %3, i32 0, i32 0
  %5 = load i32, ptr %4, align 8, !tbaa !58
  ret i32 %5
}

; Function Attrs: mustprogress uwtable
define linkonce_odr hidden noundef i32 @_ZNK4decl13get_decl_kindEv(ptr noundef nonnull align 8 dereferenceable(32) %0) #4 comdat align 2 {
  %2 = alloca ptr, align 8
  store ptr %0, ptr %2, align 8, !tbaa !50
  %3 = load ptr, ptr %2, align 8
  %4 = getelementptr inbounds nuw %class.decl, ptr %3, i32 0, i32 2
  %5 = load ptr, ptr %4, align 8, !tbaa !52
  %6 = icmp eq ptr %5, null
  br i1 %6, label %7, label %8

7:                                                ; preds = %1
  br label %12

8:                                                ; preds = %1
  %9 = getelementptr inbounds nuw %class.decl, ptr %3, i32 0, i32 2
  %10 = load ptr, ptr %9, align 8, !tbaa !52
  %11 = call noundef i32 @_ZNK9decl_info13get_decl_kindEv(ptr noundef nonnull align 8 dereferenceable(17) %10)
  br label %12

12:                                               ; preds = %8, %7
  %13 = phi i32 [ -1, %7 ], [ %11, %8 ]
  ret i32 %13
}

; Function Attrs: mustprogress uwtable
define linkonce_odr hidden noundef i32 @_ZNK4decl13get_family_idEv(ptr noundef nonnull align 8 dereferenceable(32) %0) #4 comdat align 2 {
  %2 = alloca ptr, align 8
  store ptr %0, ptr %2, align 8, !tbaa !50
  %3 = load ptr, ptr %2, align 8
  %4 = getelementptr inbounds nuw %class.decl, ptr %3, i32 0, i32 2
  %5 = load ptr, ptr %4, align 8, !tbaa !52
  %6 = icmp eq ptr %5, null
  br i1 %6, label %7, label %8

7:                                                ; preds = %1
  br label %12

8:                                                ; preds = %1
  %9 = getelementptr inbounds nuw %class.decl, ptr %3, i32 0, i32 2
  %10 = load ptr, ptr %9, align 8, !tbaa !52
  %11 = call noundef i32 @_ZNK9decl_info13get_family_idEv(ptr noundef nonnull align 8 dereferenceable(17) %10)
  br label %12

12:                                               ; preds = %8, %7
  %13 = phi i32 [ -1, %7 ], [ %11, %8 ]
  ret i32 %13
}

; Function Attrs: mustprogress uwtable
define linkonce_odr hidden noundef zeroext i1 @_ZNK4sort10is_sort_ofEii(ptr noundef nonnull align 8 dereferenceable(32) %0, i32 noundef %1, i32 noundef %2) #4 comdat align 2 {
  %4 = alloca ptr, align 8
  %5 = alloca i32, align 4
  %6 = alloca i32, align 4
  store ptr %0, ptr %4, align 8, !tbaa !10
  store i32 %1, ptr %5, align 4, !tbaa !22
  store i32 %2, ptr %6, align 4, !tbaa !22
  %7 = load ptr, ptr %4, align 8
  %8 = call noundef i32 @_ZNK4decl13get_family_idEv(ptr noundef nonnull align 8 dereferenceable(32) %7)
  %9 = load i32, ptr %5, align 4, !tbaa !22
  %10 = icmp eq i32 %8, %9
  br i1 %10, label %11, label %15

11:                                               ; preds = %3
  %12 = call noundef i32 @_ZNK4decl13get_decl_kindEv(ptr noundef nonnull align 8 dereferenceable(32) %7)
  %13 = load i32, ptr %6, align 4, !tbaa !22
  %14 = icmp eq i32 %12, %13
  br label %15

15:                                               ; preds = %11, %3
  %16 = phi i1 [ false, %3 ], [ %14, %11 ]
  ret i1 %16
}

; Function Attrs: mustprogress uwtable
define linkonce_odr hidden noundef nonnull align 8 dereferenceable(441) ptr @_ZNK10arith_util6pluginEv(ptr noundef nonnull align 8 dereferenceable(16) %0) #4 comdat align 2 {
  %2 = alloca ptr, align 8
  store ptr %0, ptr %2, align 8, !tbaa !12
  %3 = load ptr, ptr %2, align 8
  %4 = getelementptr inbounds nuw %class.arith_util, ptr %3, i32 0, i32 1
  %5 = load ptr, ptr %4, align 8, !tbaa !49
  %6 = icmp ne ptr %5, null
  br i1 %6, label %8, label %7

7:                                                ; preds = %1
  call void @_ZN10arith_util11init_pluginEv(ptr noundef nonnull align 8 dereferenceable(16) %3)
  br label %8

8:                                                ; preds = %7, %1
  %9 = getelementptr inbounds nuw %class.arith_util, ptr %3, i32 0, i32 1
  %10 = load ptr, ptr %9, align 8, !tbaa !49
  ret ptr %10
}

; Function Attrs: inlinehint mustprogress uwtable
define linkonce_odr hidden noundef zeroext i1 @_Z10is_sort_ofPK4sortii(ptr noundef %0, i32 noundef %1, i32 noundef %2) #7 comdat {
  %4 = alloca ptr, align 8
  %5 = alloca i32, align 4
  %6 = alloca i32, align 4
  store ptr %0, ptr %4, align 8, !tbaa !10
  store i32 %1, ptr %5, align 4, !tbaa !22
  store i32 %2, ptr %6, align 4, !tbaa !22
  %7 = load ptr, ptr %4, align 8, !tbaa !10
  %8 = load i32, ptr %5, align 4, !tbaa !22
  %9 = load i32, ptr %6, align 4, !tbaa !22
  %10 = call noundef zeroext i1 @_ZNK4sort10is_sort_ofEii(ptr noundef nonnull align 8 dereferenceable(32) %7, i32 noundef %8, i32 noundef %9)
  ret i1 %10
}

; Function Attrs: mustprogress uwtable
define linkonce_odr hidden noundef ptr @_ZNK10arith_util10mk_numeralERK8rationalb(ptr noundef nonnull align 8 dereferenceable(16) %0, ptr noundef nonnull align 8 dereferenceable(32) %1, i1 noundef zeroext %2) #4 comdat align 2 {
  %4 = alloca ptr, align 8
  %5 = alloca ptr, align 8
  %6 = alloca i8, align 1
  store ptr %0, ptr %4, align 8, !tbaa !12
  store ptr %1, ptr %5, align 8, !tbaa !8
  %7 = zext i1 %2 to i8
  store i8 %7, ptr %6, align 1, !tbaa !24
  %8 = load ptr, ptr %4, align 8
  %9 = call noundef nonnull align 8 dereferenceable(441) ptr @_ZNK10arith_util6pluginEv(ptr noundef nonnull align 8 dereferenceable(16) %8)
  %10 = load ptr, ptr %5, align 8, !tbaa !8
  %11 = load i8, ptr %6, align 1, !tbaa !24, !range !26, !noundef !27
  %12 = trunc i8 %11 to i1
  %13 = call noundef ptr @_ZN17arith_decl_plugin10mk_numeralERK8rationalb(ptr noundef nonnull align 8 dereferenceable(441) %9, ptr noundef nonnull align 8 dereferenceable(32) %10, i1 noundef zeroext %12)
  ret ptr %13
}

; Function Attrs: mustprogress uwtable
define linkonce_odr hidden noundef zeroext i1 @_ZNK17arith_recognizers6is_intEPK4sort(ptr noundef nonnull align 1 dereferenceable(1) %0, ptr noundef %1) #4 comdat align 2 {
  %3 = alloca ptr, align 8
  %4 = alloca ptr, align 8
  store ptr %0, ptr %3, align 8, !tbaa !47
  store ptr %1, ptr %4, align 8, !tbaa !10
  %5 = load ptr, ptr %4, align 8, !tbaa !10
  %6 = call noundef zeroext i1 @_Z10is_sort_ofPK4sortii(ptr noundef %5, i32 noundef 5, i32 noundef 1)
  ret i1 %6
}

; Function Attrs: mustprogress uwtable
define linkonce_odr hidden noundef ptr @_ZNK10arith_util10mk_numeralERK8rationalPK4sort(ptr noundef nonnull align 8 dereferenceable(16) %0, ptr noundef nonnull align 8 dereferenceable(32) %1, ptr noundef %2) #4 comdat align 2 {
  %4 = alloca ptr, align 8
  %5 = alloca ptr, align 8
  %6 = alloca ptr, align 8
  store ptr %0, ptr %4, align 8, !tbaa !12
  store ptr %1, ptr %5, align 8, !tbaa !8
  store ptr %2, ptr %6, align 8, !tbaa !10
  %7 = load ptr, ptr %4, align 8
  %8 = load ptr, ptr %5, align 8, !tbaa !8
  %9 = load ptr, ptr %6, align 8, !tbaa !10
  %10 = call noundef zeroext i1 @_ZNK17arith_recognizers6is_intEPK4sort(ptr noundef nonnull align 1 dereferenceable(1) %7, ptr noundef %9)
  %11 = call noundef ptr @_ZNK10arith_util10mk_numeralERK8rationalb(ptr noundef nonnull align 8 dereferenceable(16) %7, ptr noundef nonnull align 8 dereferenceable(32) %8, i1 noundef zeroext %10)
  ret ptr %11
}

; Function Attrs: mustprogress uwtable
define hidden noundef ptr @_ZN13arith_factory13mk_value_coreERK8rationalP4sort(ptr noundef nonnull align 8 dereferenceable(104) %0, ptr noundef nonnull align 8 dereferenceable(32) %1, ptr noundef %2) unnamed_addr #4 align 2 {
  %4 = alloca ptr, align 8
  %5 = alloca ptr, align 8
  %6 = alloca ptr, align 8
  store ptr %0, ptr %4, align 8, !tbaa !3
  store ptr %1, ptr %5, align 8, !tbaa !8
  store ptr %2, ptr %6, align 8, !tbaa !10
  %7 = load ptr, ptr %4, align 8
  %8 = getelementptr inbounds nuw %class.arith_factory, ptr %7, i32 0, i32 1
  %9 = load ptr, ptr %5, align 8, !tbaa !8
  %10 = load ptr, ptr %6, align 8, !tbaa !10
  %11 = call noundef ptr @_ZNK10arith_util10mk_numeralERK8rationalPK4sort(ptr noundef nonnull align 8 dereferenceable(16) %8, ptr noundef nonnull align 8 dereferenceable(32) %9, ptr noundef %10)
  ret ptr %11
}