; Function Attrs: mustprogress uwtable
define hidden noundef ptr @_ZN13arith_factory13mk_value_coreERK8rationalP4sort(ptr noundef nonnull align 8 dereferenceable(104) %0, ptr noundef nonnull align 8 dereferenceable(32) %1, ptr noundef readonly captures(none) %2) unnamed_addr #3 align 2 {
  %4 = getelementptr inbounds nuw i8, ptr %0, i64 88
  %5 = getelementptr inbounds nuw i8, ptr %2, i64 24
  %6 = load ptr, ptr %5, align 8, !tbaa !3
  %7 = icmp eq ptr %6, null
  br i1 %7, label %_ZNK17arith_recognizers6is_intEPK4sort.exit.i, label %_ZNK4decl13get_family_idEv.exit.thread.i.i.i.i

_ZNK4decl13get_family_idEv.exit.thread.i.i.i.i:   ; preds = %3
  %8 = load i32, ptr %6, align 8, !tbaa !13
  %9 = icmp eq i32 %8, 5
  br i1 %9, label %10, label %_ZNK17arith_recognizers6is_intEPK4sort.exit.i

10:                                               ; preds = %_ZNK4decl13get_family_idEv.exit.thread.i.i.i.i
  %11 = getelementptr inbounds nuw i8, ptr %6, i64 4
  %12 = load i32, ptr %11, align 4, !tbaa !18
  %13 = icmp eq i32 %12, 1
  br label %_ZNK17arith_recognizers6is_intEPK4sort.exit.i

_ZNK17arith_recognizers6is_intEPK4sort.exit.i:    ; preds = %10, %_ZNK4decl13get_family_idEv.exit.thread.i.i.i.i, %3
  %14 = phi i1 [ %13, %10 ], [ false, %_ZNK4decl13get_family_idEv.exit.thread.i.i.i.i ], [ false, %3 ]
  %15 = getelementptr inbounds nuw i8, ptr %0, i64 96
  %16 = load ptr, ptr %15, align 8, !tbaa !19
  %.not.i.i.i = icmp eq ptr %16, null
  br i1 %.not.i.i.i, label %17, label %_ZNK10arith_util10mk_numeralERK8rationalPK4sort.exit

17:                                               ; preds = %_ZNK17arith_recognizers6is_intEPK4sort.exit.i
  tail call void @_ZN10arith_util11init_pluginEv(ptr noundef nonnull align 8 dereferenceable(16) %4)
  %.pre.i.i.i = load ptr, ptr %15, align 8, !tbaa !19
  br label %_ZNK10arith_util10mk_numeralERK8rationalPK4sort.exit

_ZNK10arith_util10mk_numeralERK8rationalPK4sort.exit: ; preds = %_ZNK17arith_recognizers6is_intEPK4sort.exit.i, %17
  %18 = phi ptr [ %.pre.i.i.i, %17 ], [ %16, %_ZNK17arith_recognizers6is_intEPK4sort.exit.i ]
  %19 = tail call noundef ptr @_ZN17arith_decl_plugin10mk_numeralERK8rationalb(ptr noundef nonnull align 8 dereferenceable(441) %18, ptr noundef nonnull align 8 dereferenceable(32) %1, i1 noundef zeroext %14)
  ret ptr %19
}